; Function Attrs: mustprogress uwtable
define hidden void @_ZN6spacer23collect_uninterp_constsEP4exprR10ref_vectorIS0_11ast_managerE(ptr noundef %e, ptr noundef nonnull align 8 dereferenceable(16) %out) local_unnamed_addr #3 personality ptr @__gxx_personality_v0 {
entry:
  %visited.i = alloca %class.obj_mark, align 8
  %proc = alloca %"struct.spacer::collect_uninterp_consts_ns::proc", align 8
  store ptr %out, ptr %proc, align 8
  call void @llvm.lifetime.start.p0(i64 24, ptr nonnull %visited.i)
  %m_marks.i.i = getelementptr inbounds i8, ptr %visited.i, i64 8
  call void @llvm.memset.p0.i64(ptr noundef nonnull align 8 dereferenceable(16) %m_marks.i.i, i8 0, i64 16, i1 false)
  invoke void @_Z18for_each_expr_coreIN6spacer26collect_uninterp_consts_ns4procE8obj_markI4expr10bit_vector14default_t2uintIS4_EELb0ELb0EEvRT_RT0_PS4_(ptr noundef nonnull align 8 dereferenceable(8) %proc, ptr noundef nonnull align 8 dereferenceable(24) %visited.i, ptr noundef %e)
          to label %invoke.cont.i unwind label %lpad.i

invoke.cont.i:                                    ; preds = %entry
  %m_data.i.i.i = getelementptr inbounds i8, ptr %visited.i, i64 16
  %0 = load ptr, ptr %m_data.i.i.i, align 8
  %cmp.i.i.i.i = icmp eq ptr %0, null
  br i1 %cmp.i.i.i.i, label %_Z13for_each_exprIN6spacer26collect_uninterp_consts_ns4procEEvRT_P4expr.exit, label %if.end.i.i.i.i

if.end.i.i.i.i:                                   ; preds = %invoke.cont.i
  invoke void @_ZN6memory10deallocateEPv(ptr noundef nonnull %0)
          to label %_Z13for_each_exprIN6spacer26collect_uninterp_consts_ns4procEEvRT_P4expr.exit unwind label %terminate.lpad.i.i.i

terminate.lpad.i.i.i:                             ; preds = %if.end.i.i.i.i
  %1 = landingpad { ptr, i32 }
          catch ptr null
  %2 = extractvalue { ptr, i32 } %1, 0
  call void @__clang_call_terminate(ptr %2) #21
  unreachable

lpad.i:                                           ; preds = %entry
  %3 = landingpad { ptr, i32 }
          cleanup
  call void @_ZN8obj_markI4expr10bit_vector14default_t2uintIS0_EED2Ev(ptr noundef nonnull align 8 dereferenceable(24) %visited.i) #20
  resume { ptr, i32 } %3

_Z13for_each_exprIN6spacer26collect_uninterp_consts_ns4procEEvRT_P4expr.exit: ; preds = %invoke.cont.i, %if.end.i.i.i.i
  call void @llvm.lifetime.end.p0(i64 24, ptr nonnull %visited.i)
  ret void
}